target datalayout = "e-m:e-p270:32:32-p271:32:32-p272:64:64-i64:64-i128:128-f80:128-n8:16:32:64-S128"
target triple = "x86_64-unknown-linux-gnu"

%struct.V9fsState = type { %struct.anon, %struct.anon.0, ptr, ptr, %struct.FsContext, ptr, i32, i32, [128 x %struct.V9fsPDU], ptr, %struct.CoRwlock, i32, ptr, %struct.V9fsConf, %struct.stat, i64, %struct.qht, %struct.qht, %struct.qht, i64, i16, i64 }
%struct.anon = type { ptr }
%struct.anon.0 = type { ptr }
%struct.FsContext = type { i32, ptr, i32, ptr, %struct.ExtendedOps, ptr, ptr, i32, i32 }
%struct.ExtendedOps = type { ptr }
%struct.V9fsPDU = type { i32, i16, i8, i8, %struct.CoQueue, ptr, %struct.anon.2, i32 }
%struct.CoQueue = type { %struct.anon.1 }
%struct.anon.1 = type { ptr, ptr }
%struct.anon.2 = type { ptr, ptr }
%struct.CoRwlock = type { %struct.CoMutex, i32, %struct.anon.4 }
%struct.CoMutex = type { i32, ptr, %struct.anon.3, %struct.anon.3, i32, i32, ptr }
%struct.anon.3 = type { ptr }
%struct.anon.4 = type { ptr, ptr }
%struct.V9fsConf = type { ptr, ptr }
%struct.stat = type { i64, i64, i64, i32, i32, i32, i32, i64, i64, i64, i64, %struct.timespec, %struct.timespec, %struct.timespec, [3 x i64] }
%struct.timespec = type { i64, i64 }
%struct.qht = type { ptr, ptr, %struct.QemuMutex, i32 }
%struct.QemuMutex = type { %union.pthread_mutex_t, i8 }
%union.pthread_mutex_t = type { %struct.__pthread_mutex_s }
%struct.__pthread_mutex_s = type { i32, i32, i32, i32, i32, i16, i16, %struct.__pthread_internal_list }
%struct.__pthread_internal_list = type { ptr, ptr }
%struct.VirtfsCoResetData = type { %struct.V9fsPDU, i8 }

; Function Attrs: nounwind sspstrong uwtable
define dso_local void @v9fs_reset(ptr noundef %s) #0 {
entry:
  %s.addr = alloca ptr, align 8
  %data = alloca %struct.VirtfsCoResetData, align 8
  %co = alloca ptr, align 8
  store ptr %s, ptr %s.addr, align 8
  call void @llvm.memset.p0.i64(ptr align 8 %data, i8 0, i64 64, i1 false)
  %pdu = getelementptr inbounds %struct.VirtfsCoResetData, ptr %data, i32 0, i32 0
  %s1 = getelementptr inbounds %struct.V9fsPDU, ptr %pdu, i32 0, i32 5
  %0 = load ptr, ptr %s.addr, align 8
  store ptr %0, ptr %s1, align 8
  br label %while.cond

while.cond:                                       ; preds = %while.body, %entry
  %1 = load ptr, ptr %s.addr, align 8
  %active_list = getelementptr inbounds %struct.V9fsState, ptr %1, i32 0, i32 1
  %lh_first = getelementptr inbounds %struct.anon.0, ptr %active_list, i32 0, i32 0
  %2 = load ptr, ptr %lh_first, align 8
  %cmp = icmp eq ptr %2, null
  %lnot = xor i1 %cmp, true
  br i1 %lnot, label %while.body, label %while.end

while.body:                                       ; preds = %while.cond
  %call = call ptr @qemu_get_aio_context()
  %call2 = call zeroext i1 @aio_poll(ptr noundef %call, i1 noundef zeroext true)
  br label %while.cond, !llvm.loop !11

while.end:                                        ; preds = %while.cond
  %call3 = call ptr @qemu_coroutine_create(ptr noundef @virtfs_co_reset, ptr noundef %data)
  store ptr %call3, ptr %co, align 8
  %3 = load ptr, ptr %co, align 8
  call void @qemu_coroutine_enter(ptr noundef %3)
  br label %while.cond4

while.cond4:                                      ; preds = %while.body6, %while.end
  %done = getelementptr inbounds %struct.VirtfsCoResetData, ptr %data, i32 0, i32 1
  %4 = load i8, ptr %done, align 8
  %tobool = trunc i8 %4 to i1
  %lnot5 = xor i1 %tobool, true
  br i1 %lnot5, label %while.body6, label %while.end9

while.body6:                                      ; preds = %while.cond4
  %call7 = call ptr @qemu_get_aio_context()
  %call8 = call zeroext i1 @aio_poll(ptr noundef %call7, i1 noundef zeroext true)
  br label %while.cond4, !llvm.loop !12

while.end9:                                       ; preds = %while.cond4
  ret void
}