; Function Attrs: nounwind sspstrong uwtable
define dso_local void @v9fs_reset(ptr noundef %s) local_unnamed_addr #0 {
entry:
  %data = alloca %struct.VirtfsCoResetData, align 8
  call void @llvm.memset.p0.i64(ptr noundef nonnull align 8 dereferenceable(64) %data, i8 0, i64 64, i1 false)
  %s1 = getelementptr inbounds nuw i8, ptr %data, i64 24
  store ptr %s, ptr %s1, align 8
  %active_list = getelementptr inbounds nuw i8, ptr %s, i64 8
  %0 = load ptr, ptr %active_list, align 8
  %cmp.not2 = icmp eq ptr %0, null
  br i1 %cmp.not2, label %while.end, label %while.body

while.body:                                       ; preds = %entry, %while.body
  %call = tail call ptr @qemu_get_aio_context() #24
  %call2 = tail call zeroext i1 @aio_poll(ptr noundef %call, i1 noundef zeroext true) #24
  %1 = load ptr, ptr %active_list, align 8
  %cmp.not = icmp eq ptr %1, null
  br i1 %cmp.not, label %while.end, label %while.body, !llvm.loop !10

while.end:                                        ; preds = %while.body, %entry
  %call3 = call ptr @qemu_coroutine_create(ptr noundef nonnull @virtfs_co_reset, ptr noundef nonnull %data) #24
  call void @qemu_coroutine_enter(ptr noundef %call3) #24
  %done = getelementptr inbounds nuw i8, ptr %data, i64 56
  %2 = load i8, ptr %done, align 8
  %tobool3 = trunc i8 %2 to i1
  br i1 %tobool3, label %while.end9, label %while.body6

while.body6:                                      ; preds = %while.end, %while.body6
  %call7 = call ptr @qemu_get_aio_context() #24
  %call8 = call zeroext i1 @aio_poll(ptr noundef %call7, i1 noundef zeroext true) #24
  %3 = load i8, ptr %done, align 8
  %tobool = trunc i8 %3 to i1
  br i1 %tobool, label %while.end9, label %while.body6, !llvm.loop !11

while.end9:                                       ; preds = %while.body6, %while.end
  ret void
}